target datalayout = "e-m:e-p270:32:32-p271:32:32-p272:64:64-i64:64-i128:128-f80:128-n8:16:32:64-S128"
target triple = "x86_64-pc-linux-gnu"

%"struct.cv::Ptr" = type { %"class.std::shared_ptr" }
%"class.std::shared_ptr" = type { %"class.std::__shared_ptr" }
%"class.std::__shared_ptr" = type { ptr, %"class.std::__shared_count" }
%"class.std::__shared_count" = type { ptr }
%"struct.cv::Ptr.0" = type { %"class.std::shared_ptr.1" }
%"class.std::shared_ptr.1" = type { %"class.std::__shared_ptr.2" }
%"class.std::__shared_ptr.2" = type { ptr, %"class.std::__shared_count" }
%"struct.cv::Ptr.4" = type { %"class.std::shared_ptr.5" }
%"class.std::shared_ptr.5" = type { %"class.std::__shared_ptr.6" }
%"class.std::__shared_ptr.6" = type { ptr, %"class.std::__shared_count" }
%"struct.cv::Ptr.8" = type { %"class.std::shared_ptr.9" }
%"class.std::shared_ptr.9" = type { %"class.std::__shared_ptr.10" }
%"class.std::__shared_ptr.10" = type { ptr, %"class.std::__shared_count" }
%"struct.cv::Ptr.12" = type { %"class.std::shared_ptr.13" }
%"class.std::shared_ptr.13" = type { %"class.std::__shared_ptr.14" }
%"class.std::__shared_ptr.14" = type { ptr, %"class.std::__shared_count" }
%"class.cv::videostab::StabilizerBase" = type { ptr, %"struct.cv::Ptr", %"struct.cv::Ptr.0", %"struct.cv::Ptr.0", %"struct.cv::Ptr.4", %"struct.cv::Ptr.8", %"struct.cv::Ptr.12", i32, float, i8, i32, %"class.cv::Size_", %"class.cv::Mat", i32, i32, i8, %"class.cv::Mat", i8, %"class.cv::Mat", %"class.cv::Mat", %"class.std::vector", %"class.std::vector", %"class.std::vector.16", %"class.std::vector", %"class.std::vector", %"class.std::vector", i64 }
%"class.cv::Size_" = type { i32, i32 }
%"class.cv::Mat" = type { i32, i32, i32, i32, ptr, ptr, ptr, ptr, ptr, ptr, %"struct.cv::MatSize", %"struct.cv::MatStep" }
%"struct.cv::MatSize" = type { ptr }
%"struct.cv::MatStep" = type { ptr, [2 x i64] }
%"class.std::vector.16" = type { %"struct.std::_Vector_base.17" }
%"struct.std::_Vector_base.17" = type { %"struct.std::_Vector_base<float, std::allocator<float>>::_Vector_impl" }
%"struct.std::_Vector_base<float, std::allocator<float>>::_Vector_impl" = type { %"struct.std::_Vector_base<float, std::allocator<float>>::_Vector_impl_data" }
%"struct.std::_Vector_base<float, std::allocator<float>>::_Vector_impl_data" = type { ptr, ptr, ptr }
%"class.std::vector" = type { %"struct.std::_Vector_base" }
%"struct.std::_Vector_base" = type { %"struct.std::_Vector_base<cv::Mat, std::allocator<cv::Mat>>::_Vector_impl" }
%"struct.std::_Vector_base<cv::Mat, std::allocator<cv::Mat>>::_Vector_impl" = type { %"struct.std::_Vector_base<cv::Mat, std::allocator<cv::Mat>>::_Vector_impl_data" }
%"struct.std::_Vector_base<cv::Mat, std::allocator<cv::Mat>>::_Vector_impl_data" = type { ptr, ptr, ptr }

@.str.2 = private unnamed_addr constant [28 x i8] c"\0Aprocessing time: %.3f sec\0A\00", align 1

; Function Attrs: mustprogress nounwind uwtable
define linkonce_odr hidden noundef ptr @_ZNKSt12__shared_ptrIN2cv9videostab4ILogELN9__gnu_cxx12_Lock_policyE2EE3getEv(ptr noundef nonnull align 8 dereferenceable(16) %0) #6 comdat align 2 {
  %2 = alloca ptr, align 8
  store ptr %0, ptr %2, align 8, !tbaa !81
  %3 = load ptr, ptr %2, align 8
  %4 = getelementptr inbounds nuw %"class.std::__shared_ptr", ptr %3, i32 0, i32 0
  %5 = load ptr, ptr %4, align 8, !tbaa !232
  ret ptr %5
}

; Function Attrs: mustprogress nounwind uwtable
define linkonce_odr hidden noundef nonnull align 8 dereferenceable(96) ptr @_ZNSt6vectorIN2cv3MatESaIS1_EEixEm(ptr noundef nonnull align 8 dereferenceable(24) %0, i64 noundef %1) #6 comdat align 2 {
  %3 = alloca ptr, align 8
  %4 = alloca i64, align 8
  store ptr %0, ptr %3, align 8, !tbaa !75
  store i64 %1, ptr %4, align 8, !tbaa !117
  %5 = load ptr, ptr %3, align 8
  %6 = getelementptr inbounds nuw %"struct.std::_Vector_base", ptr %5, i32 0, i32 0
  %7 = getelementptr inbounds nuw %"struct.std::_Vector_base<cv::Mat, std::allocator<cv::Mat>>::_Vector_impl_data", ptr %6, i32 0, i32 0
  %8 = load ptr, ptr %7, align 8, !tbaa !110
  %9 = load i64, ptr %4, align 8, !tbaa !117
  %10 = getelementptr inbounds nuw %"class.cv::Mat", ptr %8, i64 %9
  ret ptr %10
}

; Function Attrs: mustprogress nounwind uwtable
define linkonce_odr hidden noundef i64 @_ZNKSt6vectorIN2cv3MatESaIS1_EE4sizeEv(ptr noundef nonnull align 8 dereferenceable(24) %0) #6 comdat align 2 {
  %2 = alloca ptr, align 8
  store ptr %0, ptr %2, align 8, !tbaa !75
  %3 = load ptr, ptr %2, align 8
  %4 = getelementptr inbounds nuw %"struct.std::_Vector_base", ptr %3, i32 0, i32 0
  %5 = getelementptr inbounds nuw %"struct.std::_Vector_base<cv::Mat, std::allocator<cv::Mat>>::_Vector_impl_data", ptr %4, i32 0, i32 1
  %6 = load ptr, ptr %5, align 8, !tbaa !111
  %7 = getelementptr inbounds nuw %"struct.std::_Vector_base", ptr %3, i32 0, i32 0
  %8 = getelementptr inbounds nuw %"struct.std::_Vector_base<cv::Mat, std::allocator<cv::Mat>>::_Vector_impl_data", ptr %7, i32 0, i32 0
  %9 = load ptr, ptr %8, align 8, !tbaa !110
  %10 = ptrtoint ptr %6 to i64
  %11 = ptrtoint ptr %9 to i64
  %12 = sub i64 %10, %11
  %13 = sdiv exact i64 %12, 96
  ret i64 %13
}

; Function Attrs: mustprogress nounwind uwtable
define linkonce_odr hidden noundef ptr @_ZNK2cv3PtrINS_9videostab4ILogEEptEv(ptr noundef nonnull align 8 dereferenceable(16) %0) #6 comdat align 2 {
  %2 = alloca ptr, align 8
  store ptr %0, ptr %2, align 8, !tbaa !61
  %3 = load ptr, ptr %2, align 8
  %4 = call noundef ptr @_ZNKSt12__shared_ptrIN2cv9videostab4ILogELN9__gnu_cxx12_Lock_policyE2EE3getEv(ptr noundef nonnull align 8 dereferenceable(16) %3) #3
  ret ptr %4
}

; Function Attrs: inlinehint mustprogress uwtable
define linkonce_odr hidden noundef nonnull align 8 dereferenceable(96) ptr @_ZN2cv9videostab2atINS_3MatEEERT_iRSt6vectorIS3_SaIS3_EE(i32 noundef %0, ptr noundef nonnull align 8 dereferenceable(24) %1) #8 comdat {
  %3 = alloca i32, align 4
  %4 = alloca ptr, align 8
  store i32 %0, ptr %3, align 4, !tbaa !101
  store ptr %1, ptr %4, align 8, !tbaa !75
  %5 = load ptr, ptr %4, align 8, !tbaa !75
  %6 = load i32, ptr %3, align 4, !tbaa !101
  %7 = load ptr, ptr %4, align 8, !tbaa !75
  %8 = call noundef i64 @_ZNKSt6vectorIN2cv3MatESaIS1_EE4sizeEv(ptr noundef nonnull align 8 dereferenceable(24) %7) #3
  %9 = trunc i64 %8 to i32
  %10 = call noundef i32 @_ZN2cv17borderInterpolateEiii(i32 noundef %6, i32 noundef %9, i32 noundef 3)
  %11 = sext i32 %10 to i64
  %12 = call noundef nonnull align 8 dereferenceable(96) ptr @_ZNSt6vectorIN2cv3MatESaIS1_EEixEm(ptr noundef nonnull align 8 dereferenceable(24) %5, i64 noundef %11) #3
  ret ptr %12
}

; Function Attrs: mustprogress uwtable
define void @_ZN2cv9videostab14StabilizerBase17logProcessingTimeEv(ptr noundef nonnull align 8 dereferenceable(688) %0) #4 align 2 {
  %2 = alloca ptr, align 8
  %3 = alloca i64, align 8
  store ptr %0, ptr %2, align 8, !tbaa !3
  %4 = load ptr, ptr %2, align 8
  call void @llvm.lifetime.start.p0(i64 8, ptr %3) #3
  %5 = call i64 @clock() #3
  %6 = getelementptr inbounds nuw %"class.cv::videostab::StabilizerBase", ptr %4, i32 0, i32 26
  %7 = load i64, ptr %6, align 8, !tbaa !60
  %8 = sub nsw i64 %5, %7
  store i64 %8, ptr %3, align 8, !tbaa !117
  %9 = getelementptr inbounds nuw %"class.cv::videostab::StabilizerBase", ptr %4, i32 0, i32 1
  %10 = call noundef ptr @_ZNK2cv3PtrINS_9videostab4ILogEEptEv(ptr noundef nonnull align 8 dereferenceable(16) %9) #3
  %11 = load i64, ptr %3, align 8, !tbaa !117
  %12 = sitofp i64 %11 to double
  %13 = fdiv double %12, 1.000000e+06
  %14 = load ptr, ptr %10, align 8, !tbaa !8
  %15 = getelementptr inbounds ptr, ptr %14, i64 2
  %16 = load ptr, ptr %15, align 8
  call void (ptr, ptr, ...) %16(ptr noundef nonnull align 8 dereferenceable(8) %10, ptr noundef @.str.2, double noundef %13)
  call void @llvm.lifetime.end.p0(i64 8, ptr %3) #3
  ret void
}

; Function Attrs: mustprogress uwtable
define void @_ZN2cv9videostab14StabilizerBase19nextStabilizedFrameEv(ptr dead_on_unwind noalias writable sret(%"class.cv::Mat") align 8 %0, ptr noundef nonnull align 8 dereferenceable(688) %1) #4 align 2 {
  %3 = alloca ptr, align 8
  %4 = alloca ptr, align 8
  %5 = alloca i8, align 1
  %6 = alloca i32, align 4
  store ptr %0, ptr %3, align 8
  store ptr %1, ptr %4, align 8, !tbaa !3
  %7 = load ptr, ptr %4, align 8
  %8 = getelementptr inbounds nuw %"class.cv::videostab::StabilizerBase", ptr %7, i32 0, i32 14
  %9 = load i32, ptr %8, align 4, !tbaa !57
  %10 = getelementptr inbounds nuw %"class.cv::videostab::StabilizerBase", ptr %7, i32 0, i32 13
  %11 = load i32, ptr %10, align 8, !tbaa !10
  %12 = icmp eq i32 %9, %11
  br i1 %12, label %13, label %18

13:                                               ; preds = %2
  %14 = getelementptr inbounds nuw %"class.cv::videostab::StabilizerBase", ptr %7, i32 0, i32 14
  %15 = load i32, ptr %14, align 4, !tbaa !57
  %16 = icmp ne i32 %15, -1
  br i1 %16, label %17, label %18

17:                                               ; preds = %13
  call void @_ZN2cv9videostab14StabilizerBase17logProcessingTimeEv(ptr noundef nonnull align 8 dereferenceable(688) %7)
  call void @_ZN2cv3MatC1Ev(ptr noundef nonnull align 8 dereferenceable(96) %0) #3
  br label %45

18:                                               ; preds = %13, %2
  call void @llvm.lifetime.start.p0(i64 1, ptr %5) #3
  br label %19

19:                                               ; preds = %29, %18
  %20 = call noundef zeroext i1 @_ZN2cv9videostab14StabilizerBase14doOneIterationEv(ptr noundef nonnull align 8 dereferenceable(688) %7)
  %21 = zext i1 %20 to i8
  store i8 %21, ptr %5, align 1, !tbaa !105
  br label %22

22:                                               ; preds = %19
  %23 = load i8, ptr %5, align 1, !tbaa !105, !range !106, !noundef !107
  %24 = trunc i8 %23 to i1
  br i1 %24, label %25, label %29

25:                                               ; preds = %22
  %26 = getelementptr inbounds nuw %"class.cv::videostab::StabilizerBase", ptr %7, i32 0, i32 14
  %27 = load i32, ptr %26, align 4, !tbaa !57
  %28 = icmp eq i32 %27, -1
  br label %29

29:                                               ; preds = %25, %22
  %30 = phi i1 [ false, %22 ], [ %28, %25 ]
  br i1 %30, label %19, label %31, !llvm.loop !115

31:                                               ; preds = %29
  %32 = getelementptr inbounds nuw %"class.cv::videostab::StabilizerBase", ptr %7, i32 0, i32 14
  %33 = load i32, ptr %32, align 4, !tbaa !57
  %34 = icmp eq i32 %33, -1
  br i1 %34, label %35, label %36

35:                                               ; preds = %31
  call void @_ZN2cv9videostab14StabilizerBase17logProcessingTimeEv(ptr noundef nonnull align 8 dereferenceable(688) %7)
  call void @_ZN2cv3MatC1Ev(ptr noundef nonnull align 8 dereferenceable(96) %0) #3
  store i32 1, ptr %6, align 4
  br label %44

36:                                               ; preds = %31
  %37 = getelementptr inbounds nuw %"class.cv::videostab::StabilizerBase", ptr %7, i32 0, i32 14
  %38 = load i32, ptr %37, align 4, !tbaa !57
  %39 = getelementptr inbounds nuw %"class.cv::videostab::StabilizerBase", ptr %7, i32 0, i32 23
  %40 = call noundef nonnull align 8 dereferenceable(96) ptr @_ZN2cv9videostab2atINS_3MatEEERT_iRSt6vectorIS3_SaIS3_EE(i32 noundef %38, ptr noundef nonnull align 8 dereferenceable(24) %39)
  %41 = load ptr, ptr %7, align 8, !tbaa !8
  %42 = getelementptr inbounds ptr, ptr %41, i64 5
  %43 = load ptr, ptr %42, align 8
  call void %43(ptr dead_on_unwind writable sret(%"class.cv::Mat") align 8 %0, ptr noundef nonnull align 8 dereferenceable(688) %7, ptr noundef nonnull align 8 dereferenceable(96) %40)
  store i32 1, ptr %6, align 4
  br label %44

44:                                               ; preds = %36, %35
  call void @llvm.lifetime.end.p0(i64 1, ptr %5) #3
  br label %45

45:                                               ; preds = %44, %17
  ret void
}