; Function Attrs: mustprogress uwtable
define void @_ZN2cv9videostab14StabilizerBase19nextStabilizedFrameEv(ptr dead_on_unwind noalias writable sret(%"class.cv::Mat") align 8 %0, ptr noundef nonnull align 8 dereferenceable(688) %1) local_unnamed_addr #3 align 2 {
  %3 = getelementptr inbounds nuw i8, ptr %1, i64 228
  %4 = load i32, ptr %3, align 4, !tbaa !107
  %5 = getelementptr inbounds nuw i8, ptr %1, i64 224
  %6 = load i32, ptr %5, align 8, !tbaa !106
  %7 = icmp ne i32 %4, %6
  %.not = icmp eq i32 %4, -1
  %or.cond = or i1 %.not, %7
  br i1 %or.cond, label %.preheader, label %8

8:                                                ; preds = %2
  %9 = tail call i64 @clock() #23
  %10 = getelementptr inbounds nuw i8, ptr %1, i64 680
  %11 = load i64, ptr %10, align 8, !tbaa !110
  %12 = sub nsw i64 %9, %11
  %13 = getelementptr inbounds nuw i8, ptr %1, i64 8
  %14 = load ptr, ptr %13, align 8, !tbaa !19
  %15 = sitofp i64 %12 to double
  %16 = fdiv double %15, 1.000000e+06
  %17 = load ptr, ptr %14, align 8, !tbaa !3
  %18 = getelementptr inbounds nuw i8, ptr %17, i64 16
  %19 = load ptr, ptr %18, align 8
  tail call void (ptr, ptr, ...) %19(ptr noundef nonnull align 8 dereferenceable(8) %14, ptr noundef nonnull @.str.2, double noundef %16)
  tail call void @_ZN2cv3MatC1Ev(ptr noundef nonnull align 8 dereferenceable(96) %0) #23
  br label %52

.preheader:                                       ; preds = %2, %.preheader
  %20 = tail call noundef zeroext i1 @_ZN2cv9videostab14StabilizerBase14doOneIterationEv(ptr noundef nonnull align 8 dereferenceable(688) %1)
  %21 = load i32, ptr %3, align 4
  %22 = icmp eq i32 %21, -1
  %or.cond3 = select i1 %20, i1 %22, i1 false
  br i1 %or.cond3, label %.preheader, label %.critedge, !llvm.loop !117

.critedge:                                        ; preds = %.preheader
  br i1 %22, label %23, label %35

23:                                               ; preds = %.critedge
  %24 = tail call i64 @clock() #23
  %25 = getelementptr inbounds nuw i8, ptr %1, i64 680
  %26 = load i64, ptr %25, align 8, !tbaa !110
  %27 = sub nsw i64 %24, %26
  %28 = getelementptr inbounds nuw i8, ptr %1, i64 8
  %29 = load ptr, ptr %28, align 8, !tbaa !19
  %30 = sitofp i64 %27 to double
  %31 = fdiv double %30, 1.000000e+06
  %32 = load ptr, ptr %29, align 8, !tbaa !3
  %33 = getelementptr inbounds nuw i8, ptr %32, i64 16
  %34 = load ptr, ptr %33, align 8
  tail call void (ptr, ptr, ...) %34(ptr noundef nonnull align 8 dereferenceable(8) %29, ptr noundef nonnull @.str.2, double noundef %31)
  tail call void @_ZN2cv3MatC1Ev(ptr noundef nonnull align 8 dereferenceable(96) %0) #23
  br label %52

35:                                               ; preds = %.critedge
  %36 = getelementptr inbounds nuw i8, ptr %1, i64 608
  %37 = getelementptr inbounds nuw i8, ptr %1, i64 616
  %38 = load ptr, ptr %37, align 8, !tbaa !113
  %39 = load ptr, ptr %36, align 8, !tbaa !112
  %40 = ptrtoint ptr %38 to i64
  %41 = ptrtoint ptr %39 to i64
  %42 = sub i64 %40, %41
  %43 = sdiv exact i64 %42, 96
  %44 = trunc i64 %43 to i32
  %45 = tail call noundef i32 @_ZN2cv17borderInterpolateEiii(i32 noundef %21, i32 noundef %44, i32 noundef 3)
  %46 = sext i32 %45 to i64
  %47 = load ptr, ptr %36, align 8, !tbaa !112
  %48 = getelementptr inbounds nuw %"class.cv::Mat", ptr %47, i64 %46
  %49 = load ptr, ptr %1, align 8, !tbaa !3
  %50 = getelementptr inbounds nuw i8, ptr %49, i64 40
  %51 = load ptr, ptr %50, align 8
  tail call void %51(ptr dead_on_unwind writable sret(%"class.cv::Mat") align 8 %0, ptr noundef nonnull align 8 dereferenceable(688) %1, ptr noundef nonnull align 8 dereferenceable(96) %48)
  br label %52

52:                                               ; preds = %23, %35, %8
  ret void
}